target datalayout = "e-m:e-p270:32:32-p271:32:32-p272:64:64-i64:64-i128:128-f80:128-n8:16:32:64-S128"
target triple = "x86_64-pc-linux-gnu"

%struct.decNumber = type { i32, i32, i8, [1 x i8] }
%struct.decContext = type { i32, i32, i32, i32, i32, i32, i8 }

@_ZL9DECPOWERS = internal constant [10 x i32] [i32 1, i32 10, i32 100, i32 1000, i32 10000, i32 100000, i32 1000000, i32 10000000, i32 100000000, i32 1000000000], align 16

; Function Attrs: mustprogress nounwind uwtable
define internal void @_ZL14decSetMaxValueP9decNumberP10decContext(ptr noundef %0, ptr noundef %1) #2 {
  %3 = alloca ptr, align 8
  %4 = alloca ptr, align 8
  %5 = alloca ptr, align 8
  %6 = alloca i32, align 4
  store ptr %0, ptr %3, align 8, !tbaa !3
  store ptr %1, ptr %4, align 8, !tbaa !3
  call void @llvm.lifetime.start.p0(i64 8, ptr %5) #8
  call void @llvm.lifetime.start.p0(i64 4, ptr %6) #8
  %7 = load ptr, ptr %4, align 8, !tbaa !3
  %8 = getelementptr inbounds nuw %struct.decContext, ptr %7, i32 0, i32 0
  %9 = load i32, ptr %8, align 4, !tbaa !32
  store i32 %9, ptr %6, align 4, !tbaa !7
  %10 = load i32, ptr %6, align 4, !tbaa !7
  %11 = load ptr, ptr %3, align 8, !tbaa !3
  %12 = getelementptr inbounds nuw %struct.decNumber, ptr %11, i32 0, i32 0
  store i32 %10, ptr %12, align 4, !tbaa !16
  %13 = load ptr, ptr %3, align 8, !tbaa !3
  %14 = getelementptr inbounds nuw %struct.decNumber, ptr %13, i32 0, i32 3
  %15 = getelementptr inbounds [1 x i8], ptr %14, i64 0, i64 0
  store ptr %15, ptr %5, align 8, !tbaa !11
  br label %16

16:                                               ; preds = %32, %2
  %17 = load i32, ptr %6, align 4, !tbaa !7
  %18 = icmp sgt i32 %17, 1
  br i1 %18, label %19, label %21

19:                                               ; preds = %16
  %20 = load ptr, ptr %5, align 8, !tbaa !11
  store i8 9, ptr %20, align 1, !tbaa !13
  br label %29

21:                                               ; preds = %16
  %22 = load i32, ptr %6, align 4, !tbaa !7
  %23 = sext i32 %22 to i64
  %24 = getelementptr inbounds [10 x i32], ptr @_ZL9DECPOWERS, i64 0, i64 %23
  %25 = load i32, ptr %24, align 4, !tbaa !7
  %26 = sub i32 %25, 1
  %27 = trunc i32 %26 to i8
  %28 = load ptr, ptr %5, align 8, !tbaa !11
  store i8 %27, ptr %28, align 1, !tbaa !13
  br label %35

29:                                               ; preds = %19
  %30 = load i32, ptr %6, align 4, !tbaa !7
  %31 = sub nsw i32 %30, 1
  store i32 %31, ptr %6, align 4, !tbaa !7
  br label %32

32:                                               ; preds = %29
  %33 = load ptr, ptr %5, align 8, !tbaa !11
  %34 = getelementptr inbounds nuw i8, ptr %33, i32 1
  store ptr %34, ptr %5, align 8, !tbaa !11
  br label %16, !llvm.loop !91

35:                                               ; preds = %21
  %36 = load ptr, ptr %3, align 8, !tbaa !3
  %37 = getelementptr inbounds nuw %struct.decNumber, ptr %36, i32 0, i32 2
  store i8 0, ptr %37, align 4, !tbaa !9
  %38 = load ptr, ptr %4, align 8, !tbaa !3
  %39 = getelementptr inbounds nuw %struct.decContext, ptr %38, i32 0, i32 1
  %40 = load i32, ptr %39, align 4, !tbaa !41
  %41 = load ptr, ptr %4, align 8, !tbaa !3
  %42 = getelementptr inbounds nuw %struct.decContext, ptr %41, i32 0, i32 0
  %43 = load i32, ptr %42, align 4, !tbaa !32
  %44 = sub nsw i32 %40, %43
  %45 = add nsw i32 %44, 1
  %46 = load ptr, ptr %3, align 8, !tbaa !3
  %47 = getelementptr inbounds nuw %struct.decNumber, ptr %46, i32 0, i32 1
  store i32 %45, ptr %47, align 4, !tbaa !17
  call void @llvm.lifetime.end.p0(i64 4, ptr %6) #8
  call void @llvm.lifetime.end.p0(i64 8, ptr %5) #8
  ret void
}

; Function Attrs: mustprogress nounwind uwtable
define ptr @uprv_decNumberZero_77(ptr noundef %0) #2 {
  %2 = alloca ptr, align 8
  store ptr %0, ptr %2, align 8, !tbaa !3
  %3 = load ptr, ptr %2, align 8, !tbaa !3
  %4 = getelementptr inbounds nuw %struct.decNumber, ptr %3, i32 0, i32 2
  store i8 0, ptr %4, align 4, !tbaa !9
  %5 = load ptr, ptr %2, align 8, !tbaa !3
  %6 = getelementptr inbounds nuw %struct.decNumber, ptr %5, i32 0, i32 1
  store i32 0, ptr %6, align 4, !tbaa !17
  %7 = load ptr, ptr %2, align 8, !tbaa !3
  %8 = getelementptr inbounds nuw %struct.decNumber, ptr %7, i32 0, i32 0
  store i32 1, ptr %8, align 4, !tbaa !16
  %9 = load ptr, ptr %2, align 8, !tbaa !3
  %10 = getelementptr inbounds nuw %struct.decNumber, ptr %9, i32 0, i32 3
  %11 = getelementptr inbounds [1 x i8], ptr %10, i64 0, i64 0
  store i8 0, ptr %11, align 1, !tbaa !13
  %12 = load ptr, ptr %2, align 8, !tbaa !3
  ret ptr %12
}

; Function Attrs: mustprogress uwtable
define internal void @_ZL14decSetOverflowP9decNumberP10decContextPj(ptr noundef %0, ptr noundef %1, ptr noundef %2) #0 {
  %4 = alloca ptr, align 8
  %5 = alloca ptr, align 8
  %6 = alloca ptr, align 8
  %7 = alloca i8, align 1
  %8 = alloca i8, align 1
  %9 = alloca i32, align 4
  %10 = alloca i32, align 4
  store ptr %0, ptr %4, align 8, !tbaa !3
  store ptr %1, ptr %5, align 8, !tbaa !3
  store ptr %2, ptr %6, align 8, !tbaa !43
  call void @llvm.lifetime.start.p0(i64 1, ptr %7) #8
  store i8 0, ptr %7, align 1, !tbaa !13
  call void @llvm.lifetime.start.p0(i64 1, ptr %8) #8
  %11 = load ptr, ptr %4, align 8, !tbaa !3
  %12 = getelementptr inbounds nuw %struct.decNumber, ptr %11, i32 0, i32 2
  %13 = load i8, ptr %12, align 4, !tbaa !9
  %14 = zext i8 %13 to i32
  %15 = and i32 %14, 128
  %16 = trunc i32 %15 to i8
  store i8 %16, ptr %8, align 1, !tbaa !13
  %17 = load ptr, ptr %4, align 8, !tbaa !3
  %18 = getelementptr inbounds nuw %struct.decNumber, ptr %17, i32 0, i32 3
  %19 = getelementptr inbounds [1 x i8], ptr %18, i64 0, i64 0
  %20 = load i8, ptr %19, align 1, !tbaa !13
  %21 = zext i8 %20 to i32
  %22 = icmp eq i32 %21, 0
  br i1 %22, label %23, label %64

23:                                               ; preds = %3
  %24 = load ptr, ptr %4, align 8, !tbaa !3
  %25 = getelementptr inbounds nuw %struct.decNumber, ptr %24, i32 0, i32 0
  %26 = load i32, ptr %25, align 4, !tbaa !16
  %27 = icmp eq i32 %26, 1
  br i1 %27, label %28, label %64

28:                                               ; preds = %23
  %29 = load ptr, ptr %4, align 8, !tbaa !3
  %30 = getelementptr inbounds nuw %struct.decNumber, ptr %29, i32 0, i32 2
  %31 = load i8, ptr %30, align 4, !tbaa !9
  %32 = zext i8 %31 to i32
  %33 = and i32 %32, 112
  %34 = icmp eq i32 %33, 0
  br i1 %34, label %35, label %64

35:                                               ; preds = %28
  call void @llvm.lifetime.start.p0(i64 4, ptr %9) #8
  %36 = load ptr, ptr %5, align 8, !tbaa !3
  %37 = getelementptr inbounds nuw %struct.decContext, ptr %36, i32 0, i32 1
  %38 = load i32, ptr %37, align 4, !tbaa !41
  store i32 %38, ptr %9, align 4, !tbaa !7
  %39 = load ptr, ptr %5, align 8, !tbaa !3
  %40 = getelementptr inbounds nuw %struct.decContext, ptr %39, i32 0, i32 6
  %41 = load i8, ptr %40, align 4, !tbaa !35
  %42 = icmp ne i8 %41, 0
  br i1 %42, label %43, label %50

43:                                               ; preds = %35
  %44 = load ptr, ptr %5, align 8, !tbaa !3
  %45 = getelementptr inbounds nuw %struct.decContext, ptr %44, i32 0, i32 0
  %46 = load i32, ptr %45, align 4, !tbaa !32
  %47 = sub nsw i32 %46, 1
  %48 = load i32, ptr %9, align 4, !tbaa !7
  %49 = sub nsw i32 %48, %47
  store i32 %49, ptr %9, align 4, !tbaa !7
  br label %50

50:                                               ; preds = %43, %35
  %51 = load ptr, ptr %4, align 8, !tbaa !3
  %52 = getelementptr inbounds nuw %struct.decNumber, ptr %51, i32 0, i32 1
  %53 = load i32, ptr %52, align 4, !tbaa !17
  %54 = load i32, ptr %9, align 4, !tbaa !7
  %55 = icmp sgt i32 %53, %54
  br i1 %55, label %56, label %63

56:                                               ; preds = %50
  %57 = load i32, ptr %9, align 4, !tbaa !7
  %58 = load ptr, ptr %4, align 8, !tbaa !3
  %59 = getelementptr inbounds nuw %struct.decNumber, ptr %58, i32 0, i32 1
  store i32 %57, ptr %59, align 4, !tbaa !17
  %60 = load ptr, ptr %6, align 8, !tbaa !43
  %61 = load i32, ptr %60, align 4, !tbaa !7
  %62 = or i32 %61, 1024
  store i32 %62, ptr %60, align 4, !tbaa !7
  br label %63

63:                                               ; preds = %56, %50
  store i32 1, ptr %10, align 4
  call void @llvm.lifetime.end.p0(i64 4, ptr %9) #8
  br label %103

64:                                               ; preds = %28, %23, %3
  %65 = load ptr, ptr %4, align 8, !tbaa !3
  %66 = call ptr @uprv_decNumberZero_77(ptr noundef %65)
  %67 = load ptr, ptr %5, align 8, !tbaa !3
  %68 = getelementptr inbounds nuw %struct.decContext, ptr %67, i32 0, i32 3
  %69 = load i32, ptr %68, align 4, !tbaa !50
  switch i32 %69, label %82 [
    i32 5, label %70
    i32 7, label %71
    i32 0, label %72
    i32 6, label %77
  ]

70:                                               ; preds = %64
  store i8 1, ptr %7, align 1, !tbaa !13
  br label %83

71:                                               ; preds = %64
  store i8 1, ptr %7, align 1, !tbaa !13
  br label %83

72:                                               ; preds = %64
  %73 = load i8, ptr %8, align 1, !tbaa !13
  %74 = icmp ne i8 %73, 0
  br i1 %74, label %75, label %76

75:                                               ; preds = %72
  store i8 1, ptr %7, align 1, !tbaa !13
  br label %76

76:                                               ; preds = %75, %72
  br label %83

77:                                               ; preds = %64
  %78 = load i8, ptr %8, align 1, !tbaa !13
  %79 = icmp ne i8 %78, 0
  br i1 %79, label %81, label %80

80:                                               ; preds = %77
  store i8 1, ptr %7, align 1, !tbaa !13
  br label %81

81:                                               ; preds = %80, %77
  br label %83

82:                                               ; preds = %64
  br label %83

83:                                               ; preds = %82, %81, %76, %71, %70
  %84 = load i8, ptr %7, align 1, !tbaa !13
  %85 = icmp ne i8 %84, 0
  br i1 %85, label %86, label %92

86:                                               ; preds = %83
  %87 = load ptr, ptr %4, align 8, !tbaa !3
  %88 = load ptr, ptr %5, align 8, !tbaa !3
  call void @_ZL14decSetMaxValueP9decNumberP10decContext(ptr noundef %87, ptr noundef %88)
  %89 = load i8, ptr %8, align 1, !tbaa !13
  %90 = load ptr, ptr %4, align 8, !tbaa !3
  %91 = getelementptr inbounds nuw %struct.decNumber, ptr %90, i32 0, i32 2
  store i8 %89, ptr %91, align 4, !tbaa !9
  br label %99

92:                                               ; preds = %83
  %93 = load i8, ptr %8, align 1, !tbaa !13
  %94 = zext i8 %93 to i32
  %95 = or i32 %94, 64
  %96 = trunc i32 %95 to i8
  %97 = load ptr, ptr %4, align 8, !tbaa !3
  %98 = getelementptr inbounds nuw %struct.decNumber, ptr %97, i32 0, i32 2
  store i8 %96, ptr %98, align 4, !tbaa !9
  br label %99

99:                                               ; preds = %92, %86
  %100 = load ptr, ptr %6, align 8, !tbaa !43
  %101 = load i32, ptr %100, align 4, !tbaa !7
  %102 = or i32 %101, 2592
  store i32 %102, ptr %100, align 4, !tbaa !7
  store i32 0, ptr %10, align 4
  br label %103

103:                                              ; preds = %99, %63
  call void @llvm.lifetime.end.p0(i64 1, ptr %8) #8
  call void @llvm.lifetime.end.p0(i64 1, ptr %7) #8
  %104 = load i32, ptr %10, align 4
  switch i32 %104, label %106 [
    i32 0, label %105
    i32 1, label %105
  ]

105:                                              ; preds = %103, %103
  ret void

106:                                              ; preds = %103
  unreachable
}