; Function Attrs: mustprogress nofree norecurse nosync nounwind willreturn memory(argmem: readwrite) uwtable
define internal fastcc void @_ZL14decSetOverflowP9decNumberP10decContextPj(ptr noundef captures(none) %0, ptr noundef readonly captures(none) %1, ptr noundef nonnull captures(none) %2) unnamed_addr #11 {
  %4 = getelementptr inbounds nuw i8, ptr %0, i64 8
  %5 = load i8, ptr %4, align 4, !tbaa !3
  %6 = and i8 %5, -128
  %7 = getelementptr inbounds nuw i8, ptr %0, i64 9
  %8 = load i8, ptr %7, align 1, !tbaa !10
  %9 = icmp eq i8 %8, 0
  br i1 %9, label %10, label %28

10:                                               ; preds = %3
  %11 = load i32, ptr %0, align 4, !tbaa !9
  %12 = icmp eq i32 %11, 1
  %13 = and i8 %5, 112
  %14 = icmp eq i8 %13, 0
  %or.cond = select i1 %12, i1 %14, i1 false
  br i1 %or.cond, label %15, label %28

15:                                               ; preds = %10
  %16 = getelementptr inbounds nuw i8, ptr %1, i64 4
  %17 = load i32, ptr %16, align 4, !tbaa !36
  %18 = getelementptr inbounds nuw i8, ptr %1, i64 24
  %19 = load i8, ptr %18, align 4, !tbaa !30
  %.not27 = icmp eq i8 %19, 0
  br i1 %.not27, label %23, label %20

20:                                               ; preds = %15
  %21 = load i32, ptr %1, align 4, !tbaa !27
  %.neg33 = add i32 %17, 1
  %22 = sub i32 %.neg33, %21
  br label %23

23:                                               ; preds = %20, %15
  %.0 = phi i32 [ %22, %20 ], [ %17, %15 ]
  %24 = getelementptr inbounds nuw i8, ptr %0, i64 4
  %25 = load i32, ptr %24, align 4, !tbaa !8
  %26 = icmp sgt i32 %25, %.0
  br i1 %26, label %27, label %54

27:                                               ; preds = %23
  store i32 %.0, ptr %24, align 4, !tbaa !8
  br label %.sink.split

28:                                               ; preds = %10, %3
  %29 = getelementptr inbounds nuw i8, ptr %0, i64 4
  store i32 0, ptr %29, align 4, !tbaa !8
  store i32 1, ptr %0, align 4, !tbaa !9
  store i8 0, ptr %7, align 1, !tbaa !10
  %30 = getelementptr inbounds nuw i8, ptr %1, i64 12
  %31 = load i32, ptr %30, align 4, !tbaa !45
  switch i32 %31, label %.critedge [
    i32 5, label %.critedge31
    i32 7, label %.critedge31
    i32 0, label %32
    i32 6, label %33
  ]

32:                                               ; preds = %28
  %.not25 = icmp eq i8 %6, 0
  br i1 %.not25, label %.critedge, label %.critedge31

33:                                               ; preds = %28
  %.not.not = icmp eq i8 %6, 0
  br i1 %.not.not, label %.critedge31, label %.critedge

.critedge31:                                      ; preds = %32, %28, %28, %33
  %34 = load i32, ptr %1, align 4, !tbaa !27
  store i32 %34, ptr %0, align 4, !tbaa !9
  %35 = icmp sgt i32 %34, 1
  br i1 %35, label %.lr.ph.preheader.i, label %_ZL14decSetMaxValueP9decNumberP10decContext.exit

.lr.ph.preheader.i:                               ; preds = %.critedge31
  %36 = add nsw i32 %34, -1
  %37 = zext nneg i32 %36 to i64
  tail call void @llvm.memset.p0.i64(ptr nonnull align 1 %7, i8 9, i64 %37, i1 false), !tbaa !10
  %38 = zext nneg i32 %34 to i64
  %39 = getelementptr i8, ptr %0, i64 %38
  %scevgep.i = getelementptr i8, ptr %39, i64 8
  br label %_ZL14decSetMaxValueP9decNumberP10decContext.exit

_ZL14decSetMaxValueP9decNumberP10decContext.exit: ; preds = %.critedge31, %.lr.ph.preheader.i
  %.013.lcssa.i = phi ptr [ %7, %.critedge31 ], [ %scevgep.i, %.lr.ph.preheader.i ]
  %.0.lcssa.i = phi i32 [ %34, %.critedge31 ], [ 1, %.lr.ph.preheader.i ]
  %40 = sext i32 %.0.lcssa.i to i64
  %41 = getelementptr inbounds [10 x i32], ptr @_ZL9DECPOWERS, i64 0, i64 %40
  %42 = load i32, ptr %41, align 4, !tbaa !14
  %43 = trunc i32 %42 to i8
  %44 = add i8 %43, -1
  store i8 %44, ptr %.013.lcssa.i, align 1, !tbaa !10
  %45 = getelementptr inbounds nuw i8, ptr %1, i64 4
  %46 = load i32, ptr %45, align 4, !tbaa !36
  %47 = load i32, ptr %1, align 4, !tbaa !27
  %48 = add i32 %46, 1
  %49 = sub i32 %48, %47
  store i32 %49, ptr %29, align 4, !tbaa !8
  br label %51

.critedge:                                        ; preds = %32, %28, %33
  %50 = or disjoint i8 %6, 64
  br label %51

51:                                               ; preds = %.critedge, %_ZL14decSetMaxValueP9decNumberP10decContext.exit
  %storemerge = phi i8 [ %50, %.critedge ], [ %6, %_ZL14decSetMaxValueP9decNumberP10decContext.exit ]
  store i8 %storemerge, ptr %4, align 4, !tbaa !3
  br label %.sink.split

.sink.split:                                      ; preds = %51, %27
  %.sink35 = phi i32 [ 1024, %27 ], [ 2592, %51 ]
  %52 = load i32, ptr %2, align 4, !tbaa !14
  %53 = or i32 %52, %.sink35
  store i32 %53, ptr %2, align 4, !tbaa !14
  br label %54

54:                                               ; preds = %.sink.split, %23
  ret void
}